target datalayout = "e-m:e-p270:32:32-p271:32:32-p272:64:64-i64:64-i128:128-f80:128-n8:16:32:64-S128"
target triple = "x86_64-pc-linux-gnu"

%"class.PluginManager::PluginRangeIterator" = type <{ ptr, i8, [7 x i8] }>

@_ZN13PluginManager19PluginRangeIteratorC1EPKS_b = unnamed_addr alias void (ptr, ptr, i1), ptr @_ZN13PluginManager19PluginRangeIteratorC2EPKS_b

; Function Attrs: mustprogress uwtable
define { ptr, i8 } @_ZNK13PluginManager14pluginIteratorEb(ptr noundef nonnull align 8 dereferenceable(272) %0, i1 noundef zeroext %1) #5 align 2 {
  %3 = alloca %"class.PluginManager::PluginRangeIterator", align 8
  %4 = alloca ptr, align 8
  %5 = alloca i8, align 1
  store ptr %0, ptr %4, align 8
  %6 = zext i1 %1 to i8
  store i8 %6, ptr %5, align 1
  %7 = load ptr, ptr %4, align 8
  %8 = load i8, ptr %5, align 1
  %9 = trunc i8 %8 to i1
  call void @_ZN13PluginManager19PluginRangeIteratorC1EPKS_b(ptr noundef nonnull align 8 dereferenceable(9) %3, ptr noundef %7, i1 noundef zeroext %9)
  %10 = load { ptr, i8 }, ptr %3, align 8
  ret { ptr, i8 } %10
}